target datalayout = "e-m:e-p270:32:32-p271:32:32-p272:64:64-i64:64-i128:128-f80:128-n8:16:32:64-S128"
target triple = "x86_64-pc-linux-gnu"

%struct.asn1_object_st = type { ptr, ptr, i32, i32, ptr, i32 }

@.str = private unnamed_addr constant [126 x i8] c"generated/home/dtcxzyw/WorkSpace/Projects/compilers/llvm-opt-benchmark/bench/libquic/libquic/boringssl/crypto/asn1/a_object.c\00", align 1

; Function Attrs: nounwind uwtable
define hidden ptr @ASN1_OBJECT_new() #0 {
  %1 = alloca ptr, align 8
  %2 = alloca ptr, align 8
  %3 = alloca i32, align 4
  call void @llvm.lifetime.start.p0(i64 8, ptr %2) #7
  %4 = call noalias ptr @malloc(i64 noundef 40) #9
  store ptr %4, ptr %2, align 8, !tbaa !6
  %5 = load ptr, ptr %2, align 8, !tbaa !6
  %6 = icmp eq ptr %5, null
  br i1 %6, label %7, label %8

7:                                                ; preds = %0
  call void @ERR_put_error(i32 noundef 12, i32 noundef 0, i32 noundef 65, ptr noundef @.str, i32 noundef 346)
  store ptr null, ptr %1, align 8
  store i32 1, ptr %3, align 4
  br label %22

8:                                                ; preds = %0
  %9 = load ptr, ptr %2, align 8, !tbaa !6
  %10 = getelementptr inbounds nuw %struct.asn1_object_st, ptr %9, i32 0, i32 3
  store i32 0, ptr %10, align 4, !tbaa !17
  %11 = load ptr, ptr %2, align 8, !tbaa !6
  %12 = getelementptr inbounds nuw %struct.asn1_object_st, ptr %11, i32 0, i32 4
  store ptr null, ptr %12, align 8, !tbaa !13
  %13 = load ptr, ptr %2, align 8, !tbaa !6
  %14 = getelementptr inbounds nuw %struct.asn1_object_st, ptr %13, i32 0, i32 2
  store i32 0, ptr %14, align 8, !tbaa !36
  %15 = load ptr, ptr %2, align 8, !tbaa !6
  %16 = getelementptr inbounds nuw %struct.asn1_object_st, ptr %15, i32 0, i32 0
  store ptr null, ptr %16, align 8, !tbaa !34
  %17 = load ptr, ptr %2, align 8, !tbaa !6
  %18 = getelementptr inbounds nuw %struct.asn1_object_st, ptr %17, i32 0, i32 1
  store ptr null, ptr %18, align 8, !tbaa !35
  %19 = load ptr, ptr %2, align 8, !tbaa !6
  %20 = getelementptr inbounds nuw %struct.asn1_object_st, ptr %19, i32 0, i32 5
  store i32 1, ptr %20, align 8, !tbaa !33
  %21 = load ptr, ptr %2, align 8, !tbaa !6
  store ptr %21, ptr %1, align 8
  store i32 1, ptr %3, align 4
  br label %22

22:                                               ; preds = %8, %7
  call void @llvm.lifetime.end.p0(i64 8, ptr %2) #7
  %23 = load ptr, ptr %1, align 8
  ret ptr %23
}

; Function Attrs: nounwind uwtable
define hidden ptr @c2i_ASN1_OBJECT(ptr noundef %0, ptr noundef %1, i64 noundef %2) #0 {
  %4 = alloca ptr, align 8
  %5 = alloca ptr, align 8
  %6 = alloca ptr, align 8
  %7 = alloca i64, align 8
  %8 = alloca ptr, align 8
  %9 = alloca ptr, align 8
  %10 = alloca ptr, align 8
  %11 = alloca i32, align 4
  %12 = alloca i32, align 4
  %13 = alloca i32, align 4
  store ptr %0, ptr %5, align 8, !tbaa !30
  store ptr %1, ptr %6, align 8, !tbaa !11
  store i64 %2, ptr %7, align 8, !tbaa !23
  call void @llvm.lifetime.start.p0(i64 8, ptr %8) #7
  store ptr null, ptr %8, align 8, !tbaa !6
  call void @llvm.lifetime.start.p0(i64 8, ptr %9) #7
  call void @llvm.lifetime.start.p0(i64 8, ptr %10) #7
  call void @llvm.lifetime.start.p0(i64 4, ptr %11) #7
  call void @llvm.lifetime.start.p0(i64 4, ptr %12) #7
  %14 = load i64, ptr %7, align 8, !tbaa !23
  %15 = icmp sle i64 %14, 0
  br i1 %15, label %35, label %16

16:                                               ; preds = %3
  %17 = load i64, ptr %7, align 8, !tbaa !23
  %18 = icmp sgt i64 %17, 2147483647
  br i1 %18, label %35, label %19

19:                                               ; preds = %16
  %20 = load ptr, ptr %6, align 8, !tbaa !11
  %21 = icmp eq ptr %20, null
  br i1 %21, label %35, label %22

22:                                               ; preds = %19
  %23 = load ptr, ptr %6, align 8, !tbaa !11
  %24 = load ptr, ptr %23, align 8, !tbaa !19
  store ptr %24, ptr %9, align 8, !tbaa !19
  %25 = icmp eq ptr %24, null
  br i1 %25, label %35, label %26

26:                                               ; preds = %22
  %27 = load ptr, ptr %9, align 8, !tbaa !19
  %28 = load i64, ptr %7, align 8, !tbaa !23
  %29 = sub nsw i64 %28, 1
  %30 = getelementptr inbounds i8, ptr %27, i64 %29
  %31 = load i8, ptr %30, align 1, !tbaa !22
  %32 = zext i8 %31 to i32
  %33 = and i32 %32, 128
  %34 = icmp ne i32 %33, 0
  br i1 %34, label %35, label %36

35:                                               ; preds = %26, %22, %19, %16, %3
  call void @ERR_put_error(i32 noundef 12, i32 noundef 0, i32 noundef 146, ptr noundef @.str, i32 noundef 281)
  store ptr null, ptr %4, align 8
  store i32 1, ptr %13, align 4
  br label %165

36:                                               ; preds = %26
  %37 = load i64, ptr %7, align 8, !tbaa !23
  %38 = trunc i64 %37 to i32
  store i32 %38, ptr %12, align 4, !tbaa !18
  store i32 0, ptr %11, align 4, !tbaa !18
  br label %39

39:                                               ; preds = %60, %36
  %40 = load i32, ptr %11, align 4, !tbaa !18
  %41 = load i32, ptr %12, align 4, !tbaa !18
  %42 = icmp slt i32 %40, %41
  br i1 %42, label %43, label %65

43:                                               ; preds = %39
  %44 = load ptr, ptr %9, align 8, !tbaa !19
  %45 = load i8, ptr %44, align 1, !tbaa !22
  %46 = zext i8 %45 to i32
  %47 = icmp eq i32 %46, 128
  br i1 %47, label %48, label %59

48:                                               ; preds = %43
  %49 = load i32, ptr %11, align 4, !tbaa !18
  %50 = icmp ne i32 %49, 0
  br i1 %50, label %51, label %58

51:                                               ; preds = %48
  %52 = load ptr, ptr %9, align 8, !tbaa !19
  %53 = getelementptr inbounds i8, ptr %52, i64 -1
  %54 = load i8, ptr %53, align 1, !tbaa !22
  %55 = zext i8 %54 to i32
  %56 = and i32 %55, 128
  %57 = icmp ne i32 %56, 0
  br i1 %57, label %59, label %58

58:                                               ; preds = %51, %48
  call void @ERR_put_error(i32 noundef 12, i32 noundef 0, i32 noundef 146, ptr noundef @.str, i32 noundef 288)
  store ptr null, ptr %4, align 8
  store i32 1, ptr %13, align 4
  br label %165

59:                                               ; preds = %51, %43
  br label %60

60:                                               ; preds = %59
  %61 = load i32, ptr %11, align 4, !tbaa !18
  %62 = add nsw i32 %61, 1
  store i32 %62, ptr %11, align 4, !tbaa !18
  %63 = load ptr, ptr %9, align 8, !tbaa !19
  %64 = getelementptr inbounds nuw i8, ptr %63, i32 1
  store ptr %64, ptr %9, align 8, !tbaa !19
  br label %39, !llvm.loop !32

65:                                               ; preds = %39
  %66 = load ptr, ptr %5, align 8, !tbaa !30
  %67 = icmp eq ptr %66, null
  br i1 %67, label %79, label %68

68:                                               ; preds = %65
  %69 = load ptr, ptr %5, align 8, !tbaa !30
  %70 = load ptr, ptr %69, align 8, !tbaa !6
  %71 = icmp eq ptr %70, null
  br i1 %71, label %79, label %72

72:                                               ; preds = %68
  %73 = load ptr, ptr %5, align 8, !tbaa !30
  %74 = load ptr, ptr %73, align 8, !tbaa !6
  %75 = getelementptr inbounds nuw %struct.asn1_object_st, ptr %74, i32 0, i32 5
  %76 = load i32, ptr %75, align 8, !tbaa !33
  %77 = and i32 %76, 1
  %78 = icmp ne i32 %77, 0
  br i1 %78, label %84, label %79

79:                                               ; preds = %72, %68, %65
  %80 = call ptr @ASN1_OBJECT_new()
  store ptr %80, ptr %8, align 8, !tbaa !6
  %81 = icmp eq ptr %80, null
  br i1 %81, label %82, label %83

82:                                               ; preds = %79
  store ptr null, ptr %4, align 8
  store i32 1, ptr %13, align 4
  br label %165

83:                                               ; preds = %79
  br label %87

84:                                               ; preds = %72
  %85 = load ptr, ptr %5, align 8, !tbaa !30
  %86 = load ptr, ptr %85, align 8, !tbaa !6
  store ptr %86, ptr %8, align 8, !tbaa !6
  br label %87

87:                                               ; preds = %84, %83
  %88 = load ptr, ptr %6, align 8, !tbaa !11
  %89 = load ptr, ptr %88, align 8, !tbaa !19
  store ptr %89, ptr %9, align 8, !tbaa !19
  %90 = load ptr, ptr %8, align 8, !tbaa !6
  %91 = getelementptr inbounds nuw %struct.asn1_object_st, ptr %90, i32 0, i32 4
  %92 = load ptr, ptr %91, align 8, !tbaa !13
  store ptr %92, ptr %10, align 8, !tbaa !19
  %93 = load ptr, ptr %8, align 8, !tbaa !6
  %94 = getelementptr inbounds nuw %struct.asn1_object_st, ptr %93, i32 0, i32 4
  store ptr null, ptr %94, align 8, !tbaa !13
  %95 = load ptr, ptr %10, align 8, !tbaa !19
  %96 = icmp eq ptr %95, null
  br i1 %96, label %103, label %97

97:                                               ; preds = %87
  %98 = load ptr, ptr %8, align 8, !tbaa !6
  %99 = getelementptr inbounds nuw %struct.asn1_object_st, ptr %98, i32 0, i32 3
  %100 = load i32, ptr %99, align 4, !tbaa !17
  %101 = load i32, ptr %12, align 4, !tbaa !18
  %102 = icmp slt i32 %100, %101
  br i1 %102, label %103, label %122

103:                                              ; preds = %97, %87
  %104 = load ptr, ptr %8, align 8, !tbaa !6
  %105 = getelementptr inbounds nuw %struct.asn1_object_st, ptr %104, i32 0, i32 3
  store i32 0, ptr %105, align 4, !tbaa !17
  %106 = load ptr, ptr %10, align 8, !tbaa !19
  %107 = icmp ne ptr %106, null
  br i1 %107, label %108, label %110

108:                                              ; preds = %103
  %109 = load ptr, ptr %10, align 8, !tbaa !19
  call void @free(ptr noundef %109) #7
  br label %110

110:                                              ; preds = %108, %103
  %111 = load i32, ptr %12, align 4, !tbaa !18
  %112 = sext i32 %111 to i64
  %113 = call noalias ptr @malloc(i64 noundef %112) #9
  store ptr %113, ptr %10, align 8, !tbaa !19
  %114 = load ptr, ptr %10, align 8, !tbaa !19
  %115 = icmp eq ptr %114, null
  br i1 %115, label %116, label %117

116:                                              ; preds = %110
  store i32 65, ptr %11, align 4, !tbaa !18
  br label %150

117:                                              ; preds = %110
  %118 = load ptr, ptr %8, align 8, !tbaa !6
  %119 = getelementptr inbounds nuw %struct.asn1_object_st, ptr %118, i32 0, i32 5
  %120 = load i32, ptr %119, align 8, !tbaa !33
  %121 = or i32 %120, 8
  store i32 %121, ptr %119, align 8, !tbaa !33
  br label %122

122:                                              ; preds = %117, %97
  %123 = load ptr, ptr %10, align 8, !tbaa !19
  %124 = load ptr, ptr %9, align 8, !tbaa !19
  %125 = load i32, ptr %12, align 4, !tbaa !18
  %126 = sext i32 %125 to i64
  call void @llvm.memcpy.p0.p0.i64(ptr align 1 %123, ptr align 1 %124, i64 %126, i1 false)
  %127 = load ptr, ptr %10, align 8, !tbaa !19
  %128 = load ptr, ptr %8, align 8, !tbaa !6
  %129 = getelementptr inbounds nuw %struct.asn1_object_st, ptr %128, i32 0, i32 4
  store ptr %127, ptr %129, align 8, !tbaa !13
  %130 = load i32, ptr %12, align 4, !tbaa !18
  %131 = load ptr, ptr %8, align 8, !tbaa !6
  %132 = getelementptr inbounds nuw %struct.asn1_object_st, ptr %131, i32 0, i32 3
  store i32 %130, ptr %132, align 4, !tbaa !17
  %133 = load ptr, ptr %8, align 8, !tbaa !6
  %134 = getelementptr inbounds nuw %struct.asn1_object_st, ptr %133, i32 0, i32 0
  store ptr null, ptr %134, align 8, !tbaa !34
  %135 = load ptr, ptr %8, align 8, !tbaa !6
  %136 = getelementptr inbounds nuw %struct.asn1_object_st, ptr %135, i32 0, i32 1
  store ptr null, ptr %136, align 8, !tbaa !35
  %137 = load i32, ptr %12, align 4, !tbaa !18
  %138 = load ptr, ptr %9, align 8, !tbaa !19
  %139 = sext i32 %137 to i64
  %140 = getelementptr inbounds i8, ptr %138, i64 %139
  store ptr %140, ptr %9, align 8, !tbaa !19
  %141 = load ptr, ptr %5, align 8, !tbaa !30
  %142 = icmp ne ptr %141, null
  br i1 %142, label %143, label %146

143:                                              ; preds = %122
  %144 = load ptr, ptr %8, align 8, !tbaa !6
  %145 = load ptr, ptr %5, align 8, !tbaa !30
  store ptr %144, ptr %145, align 8, !tbaa !6
  br label %146

146:                                              ; preds = %143, %122
  %147 = load ptr, ptr %9, align 8, !tbaa !19
  %148 = load ptr, ptr %6, align 8, !tbaa !11
  store ptr %147, ptr %148, align 8, !tbaa !19
  %149 = load ptr, ptr %8, align 8, !tbaa !6
  store ptr %149, ptr %4, align 8
  store i32 1, ptr %13, align 4
  br label %165

150:                                              ; preds = %116
  %151 = load i32, ptr %11, align 4, !tbaa !18
  call void @ERR_put_error(i32 noundef 12, i32 noundef 0, i32 noundef %151, ptr noundef @.str, i32 noundef 334)
  %152 = load ptr, ptr %8, align 8, !tbaa !6
  %153 = icmp ne ptr %152, null
  br i1 %153, label %154, label %164

154:                                              ; preds = %150
  %155 = load ptr, ptr %5, align 8, !tbaa !30
  %156 = icmp eq ptr %155, null
  br i1 %156, label %162, label %157

157:                                              ; preds = %154
  %158 = load ptr, ptr %5, align 8, !tbaa !30
  %159 = load ptr, ptr %158, align 8, !tbaa !6
  %160 = load ptr, ptr %8, align 8, !tbaa !6
  %161 = icmp ne ptr %159, %160
  br i1 %161, label %162, label %164

162:                                              ; preds = %157, %154
  %163 = load ptr, ptr %8, align 8, !tbaa !6
  call void @ASN1_OBJECT_free(ptr noundef %163)
  br label %164

164:                                              ; preds = %162, %157, %150
  store ptr null, ptr %4, align 8
  store i32 1, ptr %13, align 4
  br label %165

165:                                              ; preds = %164, %146, %82, %58, %35
  call void @llvm.lifetime.end.p0(i64 4, ptr %12) #7
  call void @llvm.lifetime.end.p0(i64 4, ptr %11) #7
  call void @llvm.lifetime.end.p0(i64 8, ptr %10) #7
  call void @llvm.lifetime.end.p0(i64 8, ptr %9) #7
  call void @llvm.lifetime.end.p0(i64 8, ptr %8) #7
  %166 = load ptr, ptr %4, align 8
  ret ptr %166
}