; Function Attrs: nounwind uwtable
define hidden ptr @c2i_ASN1_OBJECT(ptr noundef captures(address_is_null) %0, ptr noundef captures(address_is_null) %1, i64 noundef %2) local_unnamed_addr #0 {
  %4 = add i64 %2, -2147483648
  %or.cond = icmp ult i64 %4, -2147483647
  %5 = icmp eq ptr %1, null
  %or.cond3 = or i1 %5, %or.cond
  br i1 %or.cond3, label %13, label %6

6:                                                ; preds = %3
  %7 = load ptr, ptr %1, align 8, !tbaa !14
  %8 = icmp eq ptr %7, null
  br i1 %8, label %13, label %9

9:                                                ; preds = %6
  %10 = getelementptr i8, ptr %7, i64 %2
  %11 = getelementptr i8, ptr %10, i64 -1
  %12 = load i8, ptr %11, align 1, !tbaa !15
  %.not = icmp sgt i8 %12, -1
  br i1 %.not, label %.lr.ph.preheader, label %13

13:                                               ; preds = %9, %6, %3
  tail call void @ERR_put_error(i32 noundef 12, i32 noundef 0, i32 noundef 146, ptr noundef nonnull @.str, i32 noundef 281) #9
  br label %61

.lr.ph.preheader:                                 ; preds = %9
  %14 = trunc nuw i64 %2 to i32
  br label %.lr.ph

.lr.ph:                                           ; preds = %.lr.ph.preheader, %22
  %.05677 = phi i32 [ %23, %22 ], [ 0, %.lr.ph.preheader ]
  %.05876 = phi ptr [ %24, %22 ], [ %7, %.lr.ph.preheader ]
  %15 = load i8, ptr %.05876, align 1, !tbaa !15
  %16 = icmp eq i8 %15, -128
  br i1 %16, label %17, label %22

17:                                               ; preds = %.lr.ph
  %.not74 = icmp eq i32 %.05677, 0
  br i1 %.not74, label %21, label %18

18:                                               ; preds = %17
  %19 = getelementptr inbounds i8, ptr %.05876, i64 -1
  %20 = load i8, ptr %19, align 1, !tbaa !15
  %.not75 = icmp sgt i8 %20, -1
  br i1 %.not75, label %21, label %22

21:                                               ; preds = %18, %17
  tail call void @ERR_put_error(i32 noundef 12, i32 noundef 0, i32 noundef 146, ptr noundef nonnull @.str, i32 noundef 288) #9
  br label %61

22:                                               ; preds = %.lr.ph, %18
  %23 = add nuw nsw i32 %.05677, 1
  %24 = getelementptr inbounds nuw i8, ptr %.05876, i64 1
  %exitcond.not = icmp eq i32 %23, %14
  br i1 %exitcond.not, label %._crit_edge, label %.lr.ph, !llvm.loop !22

._crit_edge:                                      ; preds = %22
  %25 = icmp eq ptr %0, null
  br i1 %25, label %33, label %26

26:                                               ; preds = %._crit_edge
  %27 = load ptr, ptr %0, align 8, !tbaa !23
  %28 = icmp eq ptr %27, null
  br i1 %28, label %33, label %29

29:                                               ; preds = %26
  %30 = getelementptr inbounds nuw i8, ptr %27, i64 32
  %31 = load i32, ptr %30, align 8, !tbaa !25
  %32 = and i32 %31, 1
  %.not70 = icmp eq i32 %32, 0
  br i1 %.not70, label %33, label %37

33:                                               ; preds = %29, %26, %._crit_edge
  %34 = tail call noalias dereferenceable_or_null(40) ptr @malloc(i64 noundef 40) #11
  %35 = icmp eq ptr %34, null
  br i1 %35, label %ASN1_OBJECT_new.exit.thread, label %ASN1_OBJECT_new.exit

ASN1_OBJECT_new.exit.thread:                      ; preds = %33
  tail call void @ERR_put_error(i32 noundef 12, i32 noundef 0, i32 noundef 65, ptr noundef nonnull @.str, i32 noundef 346) #9
  br label %61

ASN1_OBJECT_new.exit:                             ; preds = %33
  %36 = getelementptr inbounds nuw i8, ptr %34, i64 32
  tail call void @llvm.memset.p0.i64(ptr noundef nonnull align 8 dereferenceable(32) %34, i8 0, i64 32, i1 false)
  store i32 1, ptr %36, align 8, !tbaa !25
  br label %37

37:                                               ; preds = %ASN1_OBJECT_new.exit, %29
  %.059 = phi ptr [ %34, %ASN1_OBJECT_new.exit ], [ %27, %29 ]
  %38 = getelementptr inbounds nuw i8, ptr %.059, i64 24
  %39 = load ptr, ptr %38, align 8, !tbaa !6
  store ptr null, ptr %38, align 8, !tbaa !6
  %40 = icmp eq ptr %39, null
  %41 = getelementptr inbounds nuw i8, ptr %.059, i64 20
  br i1 %40, label %.thread, label %42

.thread:                                          ; preds = %37
  store i32 0, ptr %41, align 4, !tbaa !13
  br label %46

42:                                               ; preds = %37
  %43 = load i32, ptr %41, align 4, !tbaa !13
  %44 = icmp slt i32 %43, %14
  br i1 %44, label %45, label %54

45:                                               ; preds = %42
  store i32 0, ptr %41, align 4, !tbaa !13
  tail call void @free(ptr noundef nonnull %39) #9
  br label %46

46:                                               ; preds = %.thread, %45
  %47 = tail call noalias ptr @malloc(i64 noundef %2) #11
  %48 = icmp eq ptr %47, null
  br i1 %48, label %49, label %50

49:                                               ; preds = %46
  tail call void @ERR_put_error(i32 noundef 12, i32 noundef 0, i32 noundef 65, ptr noundef nonnull @.str, i32 noundef 334) #9
  br i1 %25, label %60, label %58

50:                                               ; preds = %46
  %51 = getelementptr inbounds nuw i8, ptr %.059, i64 32
  %52 = load i32, ptr %51, align 8, !tbaa !25
  %53 = or i32 %52, 8
  store i32 %53, ptr %51, align 8, !tbaa !25
  br label %54

54:                                               ; preds = %50, %42
  %.057 = phi ptr [ %47, %50 ], [ %39, %42 ]
  tail call void @llvm.memcpy.p0.p0.i64(ptr nonnull align 1 %.057, ptr nonnull align 1 %7, i64 %2, i1 false)
  store ptr %.057, ptr %38, align 8, !tbaa !6
  %55 = getelementptr inbounds nuw i8, ptr %.059, i64 20
  store i32 %14, ptr %55, align 4, !tbaa !13
  tail call void @llvm.memset.p0.i64(ptr noundef nonnull align 8 dereferenceable(16) %.059, i8 0, i64 16, i1 false)
  br i1 %25, label %57, label %56

56:                                               ; preds = %54
  store ptr %.059, ptr %0, align 8, !tbaa !23
  br label %57

57:                                               ; preds = %56, %54
  store ptr %10, ptr %1, align 8, !tbaa !14
  br label %61

58:                                               ; preds = %49
  %59 = load ptr, ptr %0, align 8, !tbaa !23
  %.not73 = icmp eq ptr %59, %.059
  br i1 %.not73, label %61, label %60

60:                                               ; preds = %58, %49
  tail call void @ASN1_OBJECT_free(ptr noundef nonnull %.059)
  br label %61

61:                                               ; preds = %ASN1_OBJECT_new.exit.thread, %58, %60, %57, %21, %13
  %.0 = phi ptr [ null, %13 ], [ null, %21 ], [ %.059, %57 ], [ null, %60 ], [ null, %58 ], [ null, %ASN1_OBJECT_new.exit.thread ]
  ret ptr %.0
}